target datalayout = "e-m:e-p270:32:32-p271:32:32-p272:64:64-i64:64-i128:128-f80:128-n8:16:32:64-S128"
target triple = "x86_64-unknown-linux-gnu"

@stderr = external global ptr, align 8
@.str.1 = private unnamed_addr constant [109 x i8] c"generated/home/dtcxzyw/WorkSpace/Projects/compilers/llvm-opt-benchmark/bench/libzmq/libzmq/src/io_thread.cpp\00", align 1
@.str.5 = private unnamed_addr constant [30 x i8] c"Assertion failed: %s (%s:%d)\0A\00", align 1
@.str.6 = private unnamed_addr constant [6 x i8] c"false\00", align 1

; Function Attrs: mustprogress uwtable
define void @_ZN3zmq11io_thread_t11timer_eventEi(ptr noundef nonnull align 8 dereferenceable(224) %this, i32 noundef %0) unnamed_addr #0 align 2 {
entry:
  %this.addr = alloca ptr, align 8
  %.addr = alloca i32, align 4
  store ptr %this, ptr %this.addr, align 8
  store i32 %0, ptr %.addr, align 4
  br label %do.body

do.body:                                          ; preds = %entry
  %1 = load ptr, ptr @stderr, align 8
  %call = call i32 (ptr, ptr, ...) @fprintf(ptr noundef %1, ptr noundef @.str.5, ptr noundef @.str.6, ptr noundef @.str.1, i32 noundef 80)
  %2 = load ptr, ptr @stderr, align 8
  %call2 = call i32 @fflush(ptr noundef %2)
  call void @_ZN3zmq9zmq_abortEPKc(ptr noundef @.str.6)
  br label %do.end

do.end:                                           ; preds = %do.body
  ret void
}

; Function Attrs: uwtable
define void @_ZThn24_N3zmq11io_thread_t11timer_eventEi(ptr noundef %this, i32 noundef %0) unnamed_addr #9 align 2 {
entry:
  %this.addr = alloca ptr, align 8
  %.addr = alloca i32, align 4
  store ptr %this, ptr %this.addr, align 8
  store i32 %0, ptr %.addr, align 4
  %this1 = load ptr, ptr %this.addr, align 8
  %1 = getelementptr inbounds i8, ptr %this1, i64 -24
  %2 = load i32, ptr %.addr, align 4
  tail call void @_ZN3zmq11io_thread_t11timer_eventEi(ptr noundef nonnull align 8 dereferenceable(224) %1, i32 noundef %2)
  ret void
}